target datalayout = "e-m:e-p270:32:32-p271:32:32-p272:64:64-i64:64-i128:128-f80:128-n8:16:32:64-S128"
target triple = "x86_64-pc-linux-gnu"

%struct._dfilter_loc = type { i64, i64 }
%struct.stnode = type { ptr, ptr, ptr, ptr, ptr, %struct._dfilter_loc, i16 }

; Function Attrs: nounwind null_pointer_is_valid sspstrong uwtable
define { i64, i64 } @stnode_location(ptr noundef %0) #2 {
  %2 = alloca %struct._dfilter_loc, align 8
  %3 = alloca ptr, align 8
  store ptr %0, ptr %3, align 8
  %4 = load ptr, ptr %3, align 8
  %5 = getelementptr inbounds nuw %struct.stnode, ptr %4, i32 0, i32 5
  call void @llvm.memcpy.p0.p0.i64(ptr align 8 %2, ptr align 8 %5, i64 16, i1 false)
  %6 = load { i64, i64 }, ptr %2, align 8
  ret { i64, i64 } %6
}